target datalayout = "e-m:e-p270:32:32-p271:32:32-p272:64:64-i64:64-i128:128-f80:128-n8:16:32:64-S128"
target triple = "x86_64-unknown-linux-gnu"

%"class.rocksdb::Slice" = type { ptr, i64 }

; Function Attrs: mustprogress nounwind uwtable
define linkonce_odr void @_ZN7rocksdb5SliceC2EPKcm(ptr noundef nonnull align 8 dereferenceable(16) %this, ptr noundef %d, i64 noundef %n) unnamed_addr #1 comdat align 2 {
entry:
  %this.addr = alloca ptr, align 8
  %d.addr = alloca ptr, align 8
  %n.addr = alloca i64, align 8
  store ptr %this, ptr %this.addr, align 8
  store ptr %d, ptr %d.addr, align 8
  store i64 %n, ptr %n.addr, align 8
  %this1 = load ptr, ptr %this.addr, align 8
  %data_ = getelementptr inbounds %"class.rocksdb::Slice", ptr %this1, i32 0, i32 0
  %0 = load ptr, ptr %d.addr, align 8
  store ptr %0, ptr %data_, align 8
  %size_ = getelementptr inbounds %"class.rocksdb::Slice", ptr %this1, i32 0, i32 1
  %1 = load i64, ptr %n.addr, align 8
  store i64 %1, ptr %size_, align 8
  ret void
}

; Function Attrs: mustprogress uwtable
define linkonce_odr noundef ptr @_ZN7rocksdb14GetVarint32PtrEPKcS1_Pj(ptr noundef %p, ptr noundef %limit, ptr noundef %value) #0 comdat {
entry:
  %retval = alloca ptr, align 8
  %p.addr = alloca ptr, align 8
  %limit.addr = alloca ptr, align 8
  %value.addr = alloca ptr, align 8
  %result = alloca i32, align 4
  store ptr %p, ptr %p.addr, align 8
  store ptr %limit, ptr %limit.addr, align 8
  store ptr %value, ptr %value.addr, align 8
  %0 = load ptr, ptr %p.addr, align 8
  %1 = load ptr, ptr %limit.addr, align 8
  %cmp = icmp ult ptr %0, %1
  br i1 %cmp, label %if.then, label %if.end3

if.then:                                          ; preds = %entry
  %2 = load ptr, ptr %p.addr, align 8
  %3 = load i8, ptr %2, align 1
  %conv = zext i8 %3 to i32
  store i32 %conv, ptr %result, align 4
  %4 = load i32, ptr %result, align 4
  %and = and i32 %4, 128
  %cmp1 = icmp eq i32 %and, 0
  br i1 %cmp1, label %if.then2, label %if.end

if.then2:                                         ; preds = %if.then
  %5 = load i32, ptr %result, align 4
  %6 = load ptr, ptr %value.addr, align 8
  store i32 %5, ptr %6, align 4
  %7 = load ptr, ptr %p.addr, align 8
  %add.ptr = getelementptr inbounds i8, ptr %7, i64 1
  store ptr %add.ptr, ptr %retval, align 8
  br label %return

if.end:                                           ; preds = %if.then
  br label %if.end3

if.end3:                                          ; preds = %if.end, %entry
  %8 = load ptr, ptr %p.addr, align 8
  %9 = load ptr, ptr %limit.addr, align 8
  %10 = load ptr, ptr %value.addr, align 8
  %call = call noundef ptr @_ZN7rocksdb22GetVarint32PtrFallbackEPKcS1_Pj(ptr noundef %8, ptr noundef %9, ptr noundef %10)
  store ptr %call, ptr %retval, align 8
  br label %return

return:                                           ; preds = %if.end3, %if.then2
  %11 = load ptr, ptr %retval, align 8
  ret ptr %11
}

; Function Attrs: mustprogress nounwind uwtable
define linkonce_odr noundef i64 @_ZNK7rocksdb5Slice4sizeEv(ptr noundef nonnull align 8 dereferenceable(16) %this) #1 comdat align 2 {
entry:
  %this.addr = alloca ptr, align 8
  store ptr %this, ptr %this.addr, align 8
  %this1 = load ptr, ptr %this.addr, align 8
  %size_ = getelementptr inbounds %"class.rocksdb::Slice", ptr %this1, i32 0, i32 1
  %0 = load i64, ptr %size_, align 8
  ret i64 %0
}

; Function Attrs: mustprogress nounwind uwtable
define linkonce_odr noundef ptr @_ZNK7rocksdb5Slice4dataEv(ptr noundef nonnull align 8 dereferenceable(16) %this) #1 comdat align 2 {
entry:
  %this.addr = alloca ptr, align 8
  store ptr %this, ptr %this.addr, align 8
  %this1 = load ptr, ptr %this.addr, align 8
  %data_ = getelementptr inbounds %"class.rocksdb::Slice", ptr %this1, i32 0, i32 0
  %0 = load ptr, ptr %data_, align 8
  ret ptr %0
}

; Function Attrs: mustprogress uwtable
define linkonce_odr noundef zeroext i1 @_ZN7rocksdb22GetLengthPrefixedSliceEPNS_5SliceES1_(ptr noundef %input, ptr noundef %result) #0 comdat {
entry:
  %retval = alloca i1, align 1
  %input.addr = alloca ptr, align 8
  %result.addr = alloca ptr, align 8
  %len = alloca i32, align 4
  %ref.tmp = alloca %"class.rocksdb::Slice", align 8
  store ptr %input, ptr %input.addr, align 8
  store ptr %result, ptr %result.addr, align 8
  store i32 0, ptr %len, align 4
  %0 = load ptr, ptr %input.addr, align 8
  %call = call noundef zeroext i1 @_ZN7rocksdb11GetVarint32EPNS_5SliceEPj(ptr noundef %0, ptr noundef %len)
  br i1 %call, label %land.lhs.true, label %if.else

land.lhs.true:                                    ; preds = %entry
  %1 = load ptr, ptr %input.addr, align 8
  %call1 = call noundef i64 @_ZNK7rocksdb5Slice4sizeEv(ptr noundef nonnull align 8 dereferenceable(16) %1)
  %2 = load i32, ptr %len, align 4
  %conv = zext i32 %2 to i64
  %cmp = icmp uge i64 %call1, %conv
  br i1 %cmp, label %if.then, label %if.else

if.then:                                          ; preds = %land.lhs.true
  %3 = load ptr, ptr %input.addr, align 8
  %call2 = call noundef ptr @_ZNK7rocksdb5Slice4dataEv(ptr noundef nonnull align 8 dereferenceable(16) %3)
  %4 = load i32, ptr %len, align 4
  %conv3 = zext i32 %4 to i64
  call void @_ZN7rocksdb5SliceC2EPKcm(ptr noundef nonnull align 8 dereferenceable(16) %ref.tmp, ptr noundef %call2, i64 noundef %conv3)
  %5 = load ptr, ptr %result.addr, align 8
  call void @llvm.memcpy.p0.p0.i64(ptr align 8 %5, ptr align 8 %ref.tmp, i64 16, i1 false)
  %6 = load ptr, ptr %input.addr, align 8
  %7 = load i32, ptr %len, align 4
  %conv4 = zext i32 %7 to i64
  call void @_ZN7rocksdb5Slice13remove_prefixEm(ptr noundef nonnull align 8 dereferenceable(16) %6, i64 noundef %conv4)
  store i1 true, ptr %retval, align 1
  br label %return

if.else:                                          ; preds = %land.lhs.true, %entry
  store i1 false, ptr %retval, align 1
  br label %return

return:                                           ; preds = %if.else, %if.then
  %8 = load i1, ptr %retval, align 1
  ret i1 %8
}

; Function Attrs: mustprogress uwtable
define linkonce_odr noundef zeroext i1 @_ZN7rocksdb11GetVarint32EPNS_5SliceEPj(ptr noundef %input, ptr noundef %value) #0 comdat {
entry:
  %retval = alloca i1, align 1
  %input.addr = alloca ptr, align 8
  %value.addr = alloca ptr, align 8
  %p = alloca ptr, align 8
  %limit = alloca ptr, align 8
  %q = alloca ptr, align 8
  %ref.tmp = alloca %"class.rocksdb::Slice", align 8
  store ptr %input, ptr %input.addr, align 8
  store ptr %value, ptr %value.addr, align 8
  %0 = load ptr, ptr %input.addr, align 8
  %call = call noundef ptr @_ZNK7rocksdb5Slice4dataEv(ptr noundef nonnull align 8 dereferenceable(16) %0)
  store ptr %call, ptr %p, align 8
  %1 = load ptr, ptr %p, align 8
  %2 = load ptr, ptr %input.addr, align 8
  %call1 = call noundef i64 @_ZNK7rocksdb5Slice4sizeEv(ptr noundef nonnull align 8 dereferenceable(16) %2)
  %add.ptr = getelementptr inbounds i8, ptr %1, i64 %call1
  store ptr %add.ptr, ptr %limit, align 8
  %3 = load ptr, ptr %p, align 8
  %4 = load ptr, ptr %limit, align 8
  %5 = load ptr, ptr %value.addr, align 8
  %call2 = call noundef ptr @_ZN7rocksdb14GetVarint32PtrEPKcS1_Pj(ptr noundef %3, ptr noundef %4, ptr noundef %5)
  store ptr %call2, ptr %q, align 8
  %6 = load ptr, ptr %q, align 8
  %cmp = icmp eq ptr %6, null
  br i1 %cmp, label %if.then, label %if.else

if.then:                                          ; preds = %entry
  store i1 false, ptr %retval, align 1
  br label %return

if.else:                                          ; preds = %entry
  %7 = load ptr, ptr %q, align 8
  %8 = load ptr, ptr %limit, align 8
  %9 = load ptr, ptr %q, align 8
  %sub.ptr.lhs.cast = ptrtoint ptr %8 to i64
  %sub.ptr.rhs.cast = ptrtoint ptr %9 to i64
  %sub.ptr.sub = sub i64 %sub.ptr.lhs.cast, %sub.ptr.rhs.cast
  call void @_ZN7rocksdb5SliceC2EPKcm(ptr noundef nonnull align 8 dereferenceable(16) %ref.tmp, ptr noundef %7, i64 noundef %sub.ptr.sub)
  %10 = load ptr, ptr %input.addr, align 8
  call void @llvm.memcpy.p0.p0.i64(ptr align 8 %10, ptr align 8 %ref.tmp, i64 16, i1 false)
  store i1 true, ptr %retval, align 1
  br label %return

return:                                           ; preds = %if.else, %if.then
  %11 = load i1, ptr %retval, align 1
  ret i1 %11
}

; Function Attrs: mustprogress nounwind uwtable
define linkonce_odr void @_ZN7rocksdb5Slice13remove_prefixEm(ptr noundef nonnull align 8 dereferenceable(16) %this, i64 noundef %n) #1 comdat align 2 {
entry:
  %this.addr = alloca ptr, align 8
  %n.addr = alloca i64, align 8
  store ptr %this, ptr %this.addr, align 8
  store i64 %n, ptr %n.addr, align 8
  %this1 = load ptr, ptr %this.addr, align 8
  %0 = load i64, ptr %n.addr, align 8
  %data_ = getelementptr inbounds %"class.rocksdb::Slice", ptr %this1, i32 0, i32 0
  %1 = load ptr, ptr %data_, align 8
  %add.ptr = getelementptr inbounds i8, ptr %1, i64 %0
  store ptr %add.ptr, ptr %data_, align 8
  %2 = load i64, ptr %n.addr, align 8
  %size_ = getelementptr inbounds %"class.rocksdb::Slice", ptr %this1, i32 0, i32 1
  %3 = load i64, ptr %size_, align 8
  %sub = sub i64 %3, %2
  store i64 %sub, ptr %size_, align 8
  ret void
}

; Function Attrs: mustprogress uwtable
define noundef zeroext i1 @_ZN7rocksdb26ReadKeyFromWriteBatchEntryEPNS_5SliceES1_b(ptr noundef %input, ptr noundef %key, i1 noundef zeroext %cf_record) #0 {
entry:
  %retval = alloca i1, align 1
  %input.addr = alloca ptr, align 8
  %key.addr = alloca ptr, align 8
  %cf_record.addr = alloca i8, align 1
  %cf = alloca i32, align 4
  store ptr %input, ptr %input.addr, align 8
  store ptr %key, ptr %key.addr, align 8
  %frombool = zext i1 %cf_record to i8
  store i8 %frombool, ptr %cf_record.addr, align 1
  %0 = load ptr, ptr %input.addr, align 8
  call void @_ZN7rocksdb5Slice13remove_prefixEm(ptr noundef nonnull align 8 dereferenceable(16) %0, i64 noundef 1)
  %1 = load i8, ptr %cf_record.addr, align 1
  %tobool = trunc i8 %1 to i1
  br i1 %tobool, label %if.then, label %if.end2

if.then:                                          ; preds = %entry
  %2 = load ptr, ptr %input.addr, align 8
  %call = call noundef zeroext i1 @_ZN7rocksdb11GetVarint32EPNS_5SliceEPj(ptr noundef %2, ptr noundef %cf)
  br i1 %call, label %if.end, label %if.then1

if.then1:                                         ; preds = %if.then
  store i1 false, ptr %retval, align 1
  br label %return

if.end:                                           ; preds = %if.then
  br label %if.end2

if.end2:                                          ; preds = %if.end, %entry
  %3 = load ptr, ptr %input.addr, align 8
  %4 = load ptr, ptr %key.addr, align 8
  %call3 = call noundef zeroext i1 @_ZN7rocksdb22GetLengthPrefixedSliceEPNS_5SliceES1_(ptr noundef %3, ptr noundef %4)
  store i1 %call3, ptr %retval, align 1
  br label %return

return:                                           ; preds = %if.end2, %if.then1
  %5 = load i1, ptr %retval, align 1
  ret i1 %5
}