; Function Attrs: mustprogress uwtable
define noundef zeroext i1 @_ZN7rocksdb26ReadKeyFromWriteBatchEntryEPNS_5SliceES1_b(ptr nocapture noundef %input, ptr nocapture noundef writeonly %key, i1 noundef zeroext %cf_record) local_unnamed_addr #2 {
entry:
  %len.i = alloca i32, align 4
  %cf = alloca i32, align 4
  %0 = load ptr, ptr %input, align 8
  %add.ptr.i = getelementptr inbounds i8, ptr %0, i64 1
  store ptr %add.ptr.i, ptr %input, align 8
  %size_.i = getelementptr inbounds i8, ptr %input, i64 8
  %1 = load i64, ptr %size_.i, align 8
  %sub.i = add i64 %1, -1
  store i64 %sub.i, ptr %size_.i, align 8
  br i1 %cf_record, label %if.then, label %if.end2

if.then:                                          ; preds = %entry
  %add.ptr.i3 = getelementptr inbounds i8, ptr %0, i64 %1
  %cmp.i.i = icmp sgt i64 %sub.i, 0
  br i1 %cmp.i.i, label %if.then.i.i, label %_ZN7rocksdb14GetVarint32PtrEPKcS1_Pj.exit.i

if.then.i.i:                                      ; preds = %if.then
  %2 = load i8, ptr %add.ptr.i, align 1
  %cmp1.i.i = icmp sgt i8 %2, -1
  br i1 %cmp1.i.i, label %_ZN7rocksdb14GetVarint32PtrEPKcS1_Pj.exit.thread.i, label %_ZN7rocksdb14GetVarint32PtrEPKcS1_Pj.exit.i

_ZN7rocksdb14GetVarint32PtrEPKcS1_Pj.exit.thread.i: ; preds = %if.then.i.i
  %conv.i.i = zext nneg i8 %2 to i32
  store i32 %conv.i.i, ptr %cf, align 4
  %add.ptr.i.i = getelementptr inbounds i8, ptr %0, i64 2
  br label %_ZN7rocksdb11GetVarint32EPNS_5SliceEPj.exit.thread

_ZN7rocksdb14GetVarint32PtrEPKcS1_Pj.exit.i:      ; preds = %if.then.i.i, %if.then
  %call.i.i = call noundef ptr @_ZN7rocksdb22GetVarint32PtrFallbackEPKcS1_Pj(ptr noundef nonnull %add.ptr.i, ptr noundef nonnull %add.ptr.i3, ptr noundef nonnull %cf)
  %cmp.not.i = icmp eq ptr %call.i.i, null
  br i1 %cmp.not.i, label %return, label %_ZN7rocksdb11GetVarint32EPNS_5SliceEPj.exit.thread

_ZN7rocksdb11GetVarint32EPNS_5SliceEPj.exit.thread: ; preds = %_ZN7rocksdb14GetVarint32PtrEPKcS1_Pj.exit.thread.i, %_ZN7rocksdb14GetVarint32PtrEPKcS1_Pj.exit.i
  %retval.0.i10.i = phi ptr [ %add.ptr.i.i, %_ZN7rocksdb14GetVarint32PtrEPKcS1_Pj.exit.thread.i ], [ %call.i.i, %_ZN7rocksdb14GetVarint32PtrEPKcS1_Pj.exit.i ]
  %sub.ptr.lhs.cast.i = ptrtoint ptr %add.ptr.i3 to i64
  %sub.ptr.rhs.cast.i = ptrtoint ptr %retval.0.i10.i to i64
  %sub.ptr.sub.i = sub i64 %sub.ptr.lhs.cast.i, %sub.ptr.rhs.cast.i
  store ptr %retval.0.i10.i, ptr %input, align 8
  store i64 %sub.ptr.sub.i, ptr %size_.i, align 8
  br label %if.end2

if.end2:                                          ; preds = %_ZN7rocksdb11GetVarint32EPNS_5SliceEPj.exit.thread, %entry
  %3 = phi ptr [ %retval.0.i10.i, %_ZN7rocksdb11GetVarint32EPNS_5SliceEPj.exit.thread ], [ %add.ptr.i, %entry ]
  %4 = phi i64 [ %sub.ptr.sub.i, %_ZN7rocksdb11GetVarint32EPNS_5SliceEPj.exit.thread ], [ %sub.i, %entry ]
  call void @llvm.lifetime.start.p0(i64 4, ptr nonnull %len.i)
  store i32 0, ptr %len.i, align 4
  %add.ptr.i.i4 = getelementptr inbounds i8, ptr %3, i64 %4
  %cmp.i.i.i = icmp sgt i64 %4, 0
  br i1 %cmp.i.i.i, label %if.then.i.i.i, label %_ZN7rocksdb14GetVarint32PtrEPKcS1_Pj.exit.i.i

if.then.i.i.i:                                    ; preds = %if.end2
  %5 = load i8, ptr %3, align 1
  %cmp1.i.i.i = icmp sgt i8 %5, -1
  br i1 %cmp1.i.i.i, label %_ZN7rocksdb14GetVarint32PtrEPKcS1_Pj.exit.thread.i.i, label %_ZN7rocksdb14GetVarint32PtrEPKcS1_Pj.exit.i.i

_ZN7rocksdb14GetVarint32PtrEPKcS1_Pj.exit.thread.i.i: ; preds = %if.then.i.i.i
  %conv.i.i.i = zext nneg i8 %5 to i32
  %add.ptr.i.i.i = getelementptr inbounds i8, ptr %3, i64 1
  br label %land.lhs.true.i

_ZN7rocksdb14GetVarint32PtrEPKcS1_Pj.exit.i.i:    ; preds = %if.then.i.i.i, %if.end2
  %call.i.i.i = call noundef ptr @_ZN7rocksdb22GetVarint32PtrFallbackEPKcS1_Pj(ptr noundef nonnull %3, ptr noundef %add.ptr.i.i4, ptr noundef nonnull %len.i)
  %cmp.not.i.i = icmp eq ptr %call.i.i.i, null
  br i1 %cmp.not.i.i, label %_ZN7rocksdb22GetLengthPrefixedSliceEPNS_5SliceES1_.exit, label %_ZN7rocksdb14GetVarint32PtrEPKcS1_Pj.exit.i.land.lhs.true_crit_edge.i

_ZN7rocksdb14GetVarint32PtrEPKcS1_Pj.exit.i.land.lhs.true_crit_edge.i: ; preds = %_ZN7rocksdb14GetVarint32PtrEPKcS1_Pj.exit.i.i
  %.pre.i = load i32, ptr %len.i, align 4
  br label %land.lhs.true.i

land.lhs.true.i:                                  ; preds = %_ZN7rocksdb14GetVarint32PtrEPKcS1_Pj.exit.i.land.lhs.true_crit_edge.i, %_ZN7rocksdb14GetVarint32PtrEPKcS1_Pj.exit.thread.i.i
  %6 = phi i32 [ %conv.i.i.i, %_ZN7rocksdb14GetVarint32PtrEPKcS1_Pj.exit.thread.i.i ], [ %.pre.i, %_ZN7rocksdb14GetVarint32PtrEPKcS1_Pj.exit.i.land.lhs.true_crit_edge.i ]
  %7 = phi ptr [ %add.ptr.i.i.i, %_ZN7rocksdb14GetVarint32PtrEPKcS1_Pj.exit.thread.i.i ], [ %call.i.i.i, %_ZN7rocksdb14GetVarint32PtrEPKcS1_Pj.exit.i.land.lhs.true_crit_edge.i ]
  %sub.ptr.lhs.cast.i.i = ptrtoint ptr %add.ptr.i.i4 to i64
  %sub.ptr.rhs.cast.i.i = ptrtoint ptr %7 to i64
  %sub.ptr.sub.i.i = sub i64 %sub.ptr.lhs.cast.i.i, %sub.ptr.rhs.cast.i.i
  store ptr %7, ptr %input, align 8
  store i64 %sub.ptr.sub.i.i, ptr %size_.i, align 8
  %conv.i = zext i32 %6 to i64
  %cmp.not.i5 = icmp ult i64 %sub.ptr.sub.i.i, %conv.i
  br i1 %cmp.not.i5, label %_ZN7rocksdb22GetLengthPrefixedSliceEPNS_5SliceES1_.exit, label %if.then.i

if.then.i:                                        ; preds = %land.lhs.true.i
  store ptr %7, ptr %key, align 8
  %ref.tmp.sroa.2.0.result.sroa_idx.i = getelementptr inbounds i8, ptr %key, i64 8
  store i64 %conv.i, ptr %ref.tmp.sroa.2.0.result.sroa_idx.i, align 8
  %8 = load ptr, ptr %input, align 8
  %add.ptr.i5.i = getelementptr inbounds i8, ptr %8, i64 %conv.i
  store ptr %add.ptr.i5.i, ptr %input, align 8
  %9 = load i64, ptr %size_.i, align 8
  %sub.i.i = sub i64 %9, %conv.i
  store i64 %sub.i.i, ptr %size_.i, align 8
  br label %_ZN7rocksdb22GetLengthPrefixedSliceEPNS_5SliceES1_.exit

_ZN7rocksdb22GetLengthPrefixedSliceEPNS_5SliceES1_.exit: ; preds = %_ZN7rocksdb14GetVarint32PtrEPKcS1_Pj.exit.i.i, %land.lhs.true.i, %if.then.i
  %retval.0.i = phi i1 [ true, %if.then.i ], [ false, %land.lhs.true.i ], [ false, %_ZN7rocksdb14GetVarint32PtrEPKcS1_Pj.exit.i.i ]
  call void @llvm.lifetime.end.p0(i64 4, ptr nonnull %len.i)
  br label %return

return:                                           ; preds = %_ZN7rocksdb14GetVarint32PtrEPKcS1_Pj.exit.i, %_ZN7rocksdb22GetLengthPrefixedSliceEPNS_5SliceES1_.exit
  %retval.0 = phi i1 [ %retval.0.i, %_ZN7rocksdb22GetLengthPrefixedSliceEPNS_5SliceES1_.exit ], [ false, %_ZN7rocksdb14GetVarint32PtrEPKcS1_Pj.exit.i ]
  ret i1 %retval.0
}